; Function Attrs: mustprogress uwtable
define void @_ZN4LIEF5MachO12DylibCommandC2ERKNS0_7details13dylib_commandE(ptr noundef nonnull align 8 dereferenceable(100) %0, ptr nocapture noundef nonnull readonly align 4 dereferenceable(24) %1) unnamed_addr #2 align 2 {
  %3 = load i32, ptr %1, align 4
  %4 = zext i32 %3 to i64
  %5 = getelementptr inbounds i8, ptr %1, i64 4
  %6 = load i32, ptr %5, align 4
  tail call void @_ZN4LIEF5MachO11LoadCommandC2ENS0_18LOAD_COMMAND_TYPESEj(ptr noundef nonnull align 8 dereferenceable(56) %0, i64 noundef %4, i32 noundef %6)
  store ptr getelementptr inbounds ({ [9 x ptr] }, ptr @_ZTVN4LIEF5MachO12DylibCommandE, i64 0, i32 0, i64 2), ptr %0, align 8
  %7 = getelementptr inbounds i8, ptr %0, i64 56
  tail call void @_ZNSt7__cxx1112basic_stringIcSt11char_traitsIcESaIcEEC1Ev(ptr noundef nonnull align 8 dereferenceable(32) %7) #11
  %8 = getelementptr inbounds i8, ptr %0, i64 88
  %9 = getelementptr inbounds i8, ptr %1, i64 12
  %10 = load i32, ptr %9, align 4
  store i32 %10, ptr %8, align 8
  %11 = getelementptr inbounds i8, ptr %0, i64 92
  %12 = getelementptr inbounds i8, ptr %1, i64 16
  %13 = load i32, ptr %12, align 4
  store i32 %13, ptr %11, align 4
  %14 = getelementptr inbounds i8, ptr %0, i64 96
  %15 = getelementptr inbounds i8, ptr %1, i64 20
  %16 = load i32, ptr %15, align 4
  store i32 %16, ptr %14, align 8
  ret void
}